; Function Attrs: mustprogress uwtable
define hidden void @_ZN10pull_quantC2ER11ast_manager(ptr noundef nonnull writeonly align 8 captures(none) dereferenceable(8) %0, ptr noundef nonnull align 8 dereferenceable(976) %1) unnamed_addr #3 align 2 personality ptr @__gxx_personality_v0 {
  %3 = tail call noalias noundef ptr @_ZN6memory8allocateEm(i64 noundef 704)
  store ptr getelementptr inbounds nuw inrange(-16, 16) (i8, ptr @_ZTVN10pull_quant3imp2rwE, i64 16), ptr %3, align 8, !tbaa !3
  %4 = getelementptr inbounds nuw i8, ptr %1, i64 712
  %5 = load i32, ptr %4, align 8, !tbaa !6
  %6 = icmp ne i32 %5, 0
  %7 = getelementptr inbounds nuw i8, ptr %3, i64 536
  tail call void @_ZN12rewriter_tplIN10pull_quant3imp6rw_cfgEEC2ER11ast_managerbRS2_(ptr noundef nonnull align 8 dereferenceable(704) %3, ptr noundef nonnull align 8 dereferenceable(976) %1, i1 noundef zeroext %6, ptr noundef nonnull align 8 dereferenceable(168) %7)
  store ptr getelementptr inbounds nuw inrange(-16, 16) (i8, ptr @_ZTVN10pull_quant3imp2rwE, i64 16), ptr %3, align 8, !tbaa !3
  store ptr %1, ptr %7, align 8, !tbaa !77
  %8 = getelementptr inbounds nuw i8, ptr %3, i64 544
  invoke void @_ZN13rewriter_coreC2ER11ast_managerb(ptr noundef nonnull align 8 dereferenceable(156) %8, ptr noundef nonnull align 8 dereferenceable(976) %1, i1 noundef zeroext false)
          to label %_ZN10pull_quant3impC2ER11ast_manager.exit unwind label %9

9:                                                ; preds = %2
  %10 = landingpad { ptr, i32 }
          cleanup
  tail call void @_ZN12rewriter_tplIN10pull_quant3imp6rw_cfgEED2Ev(ptr noundef nonnull align 8 dereferenceable(704) %3) #19
  resume { ptr, i32 } %10

_ZN10pull_quant3impC2ER11ast_manager.exit:        ; preds = %2
  store ptr getelementptr inbounds nuw inrange(-16, 24) (i8, ptr @_ZTV11var_shifter, i64 16), ptr %8, align 8, !tbaa !3
  %11 = getelementptr inbounds nuw i8, ptr %3, i64 688
  store i32 0, ptr %11, align 8, !tbaa !78
  %12 = getelementptr inbounds nuw i8, ptr %3, i64 692
  store i32 0, ptr %12, align 4, !tbaa !108
  %13 = getelementptr inbounds nuw i8, ptr %3, i64 696
  store i32 0, ptr %13, align 8, !tbaa !109
  store ptr %3, ptr %0, align 8, !tbaa !110
  ret void
}